target datalayout = "e-m:e-p270:32:32-p271:32:32-p272:64:64-i64:64-i128:128-f80:128-n8:16:32:64-S128"
target triple = "x86_64-pc-linux-gnu"

%struct.SurfaceDataRasInfo = type { %struct.SurfaceDataBounds, ptr, i32, i32, i32, i32, ptr, ptr, ptr, ptr, ptr, ptr, i32, %union.anon.0 }
%struct.SurfaceDataBounds = type { i32, i32, i32, i32 }
%union.anon.0 = type { ptr, [56 x i8] }

; Function Attrs: nounwind uwtable
define hidden void @ByteIndexedBmToIntBgrXparOver(ptr noundef %0, ptr noundef %1, i32 noundef %2, i32 noundef %3, ptr noundef %4, ptr noundef %5, ptr noundef %6, ptr noundef %7) #1 {
  %9 = alloca ptr, align 8
  %10 = alloca ptr, align 8
  %11 = alloca i32, align 4
  %12 = alloca i32, align 4
  %13 = alloca ptr, align 8
  %14 = alloca ptr, align 8
  %15 = alloca ptr, align 8
  %16 = alloca ptr, align 8
  %17 = alloca [256 x i32], align 16
  %18 = alloca ptr, align 8
  %19 = alloca i32, align 4
  %20 = alloca ptr, align 8
  %21 = alloca i32, align 4
  %22 = alloca i32, align 4
  %23 = alloca ptr, align 8
  %24 = alloca ptr, align 8
  %25 = alloca i32, align 4
  %26 = alloca i32, align 4
  %27 = alloca i32, align 4
  %28 = alloca i32, align 4
  store ptr %0, ptr %9, align 8
  store ptr %1, ptr %10, align 8
  store i32 %2, ptr %11, align 4
  store i32 %3, ptr %12, align 4
  store ptr %4, ptr %13, align 8
  store ptr %5, ptr %14, align 8
  store ptr %6, ptr %15, align 8
  store ptr %7, ptr %16, align 8
  br label %29

29:                                               ; preds = %8
  %30 = load ptr, ptr %13, align 8
  %31 = getelementptr inbounds %struct.SurfaceDataRasInfo, ptr %30, i32 0, i32 6
  %32 = load ptr, ptr %31, align 8
  store ptr %32, ptr %18, align 8
  %33 = load ptr, ptr %13, align 8
  %34 = getelementptr inbounds %struct.SurfaceDataRasInfo, ptr %33, i32 0, i32 5
  %35 = load i32, ptr %34, align 4
  store i32 %35, ptr %19, align 4
  %36 = load i32, ptr %19, align 4
  %37 = icmp uge i32 %36, 256
  br i1 %37, label %38, label %39

38:                                               ; preds = %29
  store i32 256, ptr %19, align 4
  br label %52

39:                                               ; preds = %29
  %40 = load i32, ptr %19, align 4
  %41 = zext i32 %40 to i64
  %42 = getelementptr inbounds [256 x i32], ptr %17, i64 0, i64 %41
  store ptr %42, ptr %20, align 8
  br label %43

43:                                               ; preds = %46, %39
  %44 = load ptr, ptr %20, align 8
  %45 = getelementptr inbounds i32, ptr %44, i64 0
  store i32 -1, ptr %45, align 4
  br label %46

46:                                               ; preds = %43
  %47 = load ptr, ptr %20, align 8
  %48 = getelementptr inbounds i32, ptr %47, i32 1
  store ptr %48, ptr %20, align 8
  %49 = getelementptr inbounds [256 x i32], ptr %17, i64 0, i64 256
  %50 = icmp ult ptr %48, %49
  br i1 %50, label %43, label %51, !llvm.loop !27

51:                                               ; preds = %46
  br label %52

52:                                               ; preds = %51, %38
  br label %53

53:                                               ; preds = %52
  store i32 0, ptr %21, align 4
  br label %54

54:                                               ; preds = %83, %53
  br label %55

55:                                               ; preds = %54
  %56 = load ptr, ptr %18, align 8
  %57 = load i32, ptr %21, align 4
  %58 = zext i32 %57 to i64
  %59 = getelementptr inbounds i32, ptr %56, i64 %58
  %60 = load i32, ptr %59, align 4
  store i32 %60, ptr %22, align 4
  %61 = load i32, ptr %22, align 4
  %62 = icmp slt i32 %61, 0
  br i1 %62, label %63, label %77

63:                                               ; preds = %55
  %64 = load i32, ptr %22, align 4
  %65 = and i32 %64, 255
  %66 = shl i32 %65, 16
  %67 = load i32, ptr %22, align 4
  %68 = and i32 %67, 65280
  %69 = or i32 %66, %68
  %70 = load i32, ptr %22, align 4
  %71 = ashr i32 %70, 16
  %72 = and i32 %71, 255
  %73 = or i32 %69, %72
  %74 = load i32, ptr %21, align 4
  %75 = zext i32 %74 to i64
  %76 = getelementptr inbounds [256 x i32], ptr %17, i64 0, i64 %75
  store i32 %73, ptr %76, align 4
  br label %81

77:                                               ; preds = %55
  %78 = load i32, ptr %21, align 4
  %79 = zext i32 %78 to i64
  %80 = getelementptr inbounds [256 x i32], ptr %17, i64 0, i64 %79
  store i32 -1, ptr %80, align 4
  br label %81

81:                                               ; preds = %77, %63
  br label %82

82:                                               ; preds = %81
  br label %83

83:                                               ; preds = %82
  %84 = load i32, ptr %21, align 4
  %85 = add i32 %84, 1
  store i32 %85, ptr %21, align 4
  %86 = load i32, ptr %19, align 4
  %87 = icmp ult i32 %85, %86
  br i1 %87, label %54, label %88, !llvm.loop !28

88:                                               ; preds = %83
  br label %89

89:                                               ; preds = %88
  br label %90

90:                                               ; preds = %89
  br label %91

91:                                               ; preds = %90
  %92 = load ptr, ptr %9, align 8
  store ptr %92, ptr %23, align 8
  %93 = load ptr, ptr %10, align 8
  store ptr %93, ptr %24, align 8
  %94 = load ptr, ptr %13, align 8
  %95 = getelementptr inbounds %struct.SurfaceDataRasInfo, ptr %94, i32 0, i32 4
  %96 = load i32, ptr %95, align 8
  store i32 %96, ptr %25, align 4
  %97 = load ptr, ptr %14, align 8
  %98 = getelementptr inbounds %struct.SurfaceDataRasInfo, ptr %97, i32 0, i32 4
  %99 = load i32, ptr %98, align 8
  store i32 %99, ptr %26, align 4
  %100 = load i32, ptr %11, align 4
  %101 = mul i32 %100, 1
  %102 = load i32, ptr %25, align 4
  %103 = sub i32 %102, %101
  store i32 %103, ptr %25, align 4
  %104 = load i32, ptr %11, align 4
  %105 = mul i32 %104, 4
  %106 = load i32, ptr %26, align 4
  %107 = sub i32 %106, %105
  store i32 %107, ptr %26, align 4
  br label %108

108:                                              ; preds = %151, %91
  %109 = load i32, ptr %11, align 4
  store i32 %109, ptr %27, align 4
  br label %110

110:                                              ; preds = %134, %108
  br label %111

111:                                              ; preds = %110
  %112 = load ptr, ptr %23, align 8
  %113 = getelementptr inbounds i8, ptr %112, i64 0
  %114 = load i8, ptr %113, align 1
  %115 = zext i8 %114 to i64
  %116 = getelementptr inbounds [256 x i32], ptr %17, i64 0, i64 %115
  %117 = load i32, ptr %116, align 4
  store i32 %117, ptr %28, align 4
  %118 = load i32, ptr %28, align 4
  %119 = icmp slt i32 %118, 0
  br i1 %119, label %124, label %120

120:                                              ; preds = %111
  %121 = load i32, ptr %28, align 4
  %122 = load ptr, ptr %24, align 8
  %123 = getelementptr inbounds i32, ptr %122, i64 0
  store i32 %121, ptr %123, align 4
  br label %124

124:                                              ; preds = %120, %111
  br label %125

125:                                              ; preds = %124
  %126 = load ptr, ptr %23, align 8
  %127 = ptrtoint ptr %126 to i64
  %128 = add nsw i64 %127, 1
  %129 = inttoptr i64 %128 to ptr
  store ptr %129, ptr %23, align 8
  %130 = load ptr, ptr %24, align 8
  %131 = ptrtoint ptr %130 to i64
  %132 = add nsw i64 %131, 4
  %133 = inttoptr i64 %132 to ptr
  store ptr %133, ptr %24, align 8
  br label %134

134:                                              ; preds = %125
  %135 = load i32, ptr %27, align 4
  %136 = add i32 %135, -1
  store i32 %136, ptr %27, align 4
  %137 = icmp ugt i32 %136, 0
  br i1 %137, label %110, label %138, !llvm.loop !29

138:                                              ; preds = %134
  %139 = load ptr, ptr %23, align 8
  %140 = ptrtoint ptr %139 to i64
  %141 = load i32, ptr %25, align 4
  %142 = sext i32 %141 to i64
  %143 = add nsw i64 %140, %142
  %144 = inttoptr i64 %143 to ptr
  store ptr %144, ptr %23, align 8
  %145 = load ptr, ptr %24, align 8
  %146 = ptrtoint ptr %145 to i64
  %147 = load i32, ptr %26, align 4
  %148 = sext i32 %147 to i64
  %149 = add nsw i64 %146, %148
  %150 = inttoptr i64 %149 to ptr
  store ptr %150, ptr %24, align 8
  br label %151

151:                                              ; preds = %138
  %152 = load i32, ptr %12, align 4
  %153 = add i32 %152, -1
  store i32 %153, ptr %12, align 4
  %154 = icmp ugt i32 %153, 0
  br i1 %154, label %108, label %155, !llvm.loop !30

155:                                              ; preds = %151
  br label %156

156:                                              ; preds = %155
  ret void
}