; Function Attrs: nofree norecurse nosync nounwind memory(readwrite, inaccessiblemem: none) uwtable
define hidden void @ByteIndexedBmToIntBgrXparOver(ptr noundef %0, ptr noundef %1, i32 noundef %2, i32 noundef %3, ptr nocapture noundef readonly %4, ptr nocapture noundef readonly %5, ptr nocapture readnone %6, ptr nocapture readnone %7) #1 {
  %9 = alloca [256 x i32], align 16
  %10 = getelementptr inbounds i8, ptr %4, i64 40
  %11 = load ptr, ptr %10, align 8
  %12 = getelementptr inbounds i8, ptr %4, i64 36
  %13 = load i32, ptr %12, align 4
  %14 = icmp ugt i32 %13, 255
  br i1 %14, label %.loopexit, label %.loopexit.loopexit

.loopexit.loopexit:                               ; preds = %8
  %15 = shl nuw nsw i32 %13, 2
  %.idx = zext nneg i32 %15 to i64
  %scevgep = getelementptr i8, ptr %9, i64 %.idx
  %16 = sub nuw nsw i64 1024, %.idx
  call void @llvm.memset.p0.i64(ptr align 4 %scevgep, i8 -1, i64 %16, i1 false)
  br label %.loopexit

.loopexit:                                        ; preds = %.loopexit.loopexit, %8
  %.040 = phi i32 [ 256, %8 ], [ %13, %.loopexit.loopexit ]
  %umax = tail call i32 @llvm.umax.i32(i32 %.040, i32 1)
  %wide.trip.count = zext nneg i32 %umax to i64
  br label %17

17:                                               ; preds = %29, %.loopexit
  %indvars.iv = phi i64 [ %indvars.iv.next, %29 ], [ 0, %.loopexit ]
  %18 = getelementptr inbounds i32, ptr %11, i64 %indvars.iv
  %19 = load i32, ptr %18, align 4
  %20 = icmp slt i32 %19, 0
  br i1 %20, label %21, label %29

21:                                               ; preds = %17
  %22 = shl i32 %19, 16
  %23 = and i32 %22, 16711680
  %24 = and i32 %19, 65280
  %25 = or disjoint i32 %23, %24
  %26 = lshr i32 %19, 16
  %27 = and i32 %26, 255
  %28 = or disjoint i32 %25, %27
  br label %29

29:                                               ; preds = %17, %21
  %.sink = phi i32 [ %28, %21 ], [ -1, %17 ]
  %30 = getelementptr inbounds [256 x i32], ptr %9, i64 0, i64 %indvars.iv
  store i32 %.sink, ptr %30, align 4
  %indvars.iv.next = add nuw nsw i64 %indvars.iv, 1
  %exitcond.not = icmp eq i64 %indvars.iv.next, %wide.trip.count
  br i1 %exitcond.not, label %31, label %17, !llvm.loop !25

31:                                               ; preds = %29
  %32 = getelementptr inbounds i8, ptr %4, i64 32
  %33 = load i32, ptr %32, align 8
  %34 = getelementptr inbounds i8, ptr %5, i64 32
  %35 = load i32, ptr %34, align 8
  %36 = sub i32 %33, %2
  %37 = shl i32 %2, 2
  %38 = sub i32 %35, %37
  %39 = sext i32 %36 to i64
  %40 = sext i32 %38 to i64
  br label %41

41:                                               ; preds = %57, %31
  %.038 = phi ptr [ %0, %31 ], [ %59, %57 ]
  %.037 = phi ptr [ %1, %31 ], [ %61, %57 ]
  %.0 = phi i32 [ %3, %31 ], [ %62, %57 ]
  br label %42

42:                                               ; preds = %49, %41
  %.139 = phi ptr [ %.038, %41 ], [ %52, %49 ]
  %.1 = phi ptr [ %.037, %41 ], [ %55, %49 ]
  %.036 = phi i32 [ %2, %41 ], [ %56, %49 ]
  %43 = load i8, ptr %.139, align 1
  %44 = zext i8 %43 to i64
  %45 = getelementptr inbounds [256 x i32], ptr %9, i64 0, i64 %44
  %46 = load i32, ptr %45, align 4
  %47 = icmp slt i32 %46, 0
  br i1 %47, label %49, label %48

48:                                               ; preds = %42
  store i32 %46, ptr %.1, align 4
  br label %49

49:                                               ; preds = %42, %48
  %50 = ptrtoint ptr %.139 to i64
  %51 = add nsw i64 %50, 1
  %52 = inttoptr i64 %51 to ptr
  %53 = ptrtoint ptr %.1 to i64
  %54 = add nsw i64 %53, 4
  %55 = inttoptr i64 %54 to ptr
  %56 = add i32 %.036, -1
  %.not = icmp eq i32 %56, 0
  br i1 %.not, label %57, label %42, !llvm.loop !26

57:                                               ; preds = %49
  %58 = add nsw i64 %51, %39
  %59 = inttoptr i64 %58 to ptr
  %60 = add nsw i64 %54, %40
  %61 = inttoptr i64 %60 to ptr
  %62 = add i32 %.0, -1
  %.not50 = icmp eq i32 %62, 0
  br i1 %.not50, label %63, label %41, !llvm.loop !27

63:                                               ; preds = %57
  ret void
}